; Function Attrs: nounwind uwtable
define internal fastcc void @FreeUserData(ptr noundef captures(none) %0) unnamed_addr #0 {
  %2 = getelementptr inbounds nuw i8, ptr %0, i64 200
  br label %.preheader

.preheader:                                       ; preds = %1, %8
  %indvars.iv19 = phi i64 [ 0, %1 ], [ %indvars.iv.next20, %8 ]
  br label %3

3:                                                ; preds = %.preheader, %3
  %indvars.iv = phi i64 [ 0, %.preheader ], [ %indvars.iv.next, %3 ]
  %4 = getelementptr inbounds nuw [5 x [5 x ptr]], ptr %0, i64 0, i64 %indvars.iv19, i64 %indvars.iv
  %5 = load ptr, ptr %4, align 8, !tbaa !10
  tail call void @SUNDlsMat_destroyMat(ptr noundef %5) #10
  %6 = getelementptr inbounds nuw [5 x [5 x ptr]], ptr %2, i64 0, i64 %indvars.iv19, i64 %indvars.iv
  %7 = load ptr, ptr %6, align 8, !tbaa !12
  tail call void @SUNDlsMat_destroyArray(ptr noundef %7) #10
  %indvars.iv.next = add nuw nsw i64 %indvars.iv, 1
  %exitcond.not = icmp eq i64 %indvars.iv.next, 5
  br i1 %exitcond.not, label %8, label %3

8:                                                ; preds = %3
  %indvars.iv.next20 = add nuw nsw i64 %indvars.iv19, 1
  %exitcond22.not = icmp eq i64 %indvars.iv.next20, 5
  br i1 %exitcond22.not, label %9, label %.preheader

9:                                                ; preds = %8
  %10 = getelementptr inbounds nuw i8, ptr %0, i64 400
  %11 = load ptr, ptr %10, align 8, !tbaa !14
  tail call void @SUNDlsMat_destroyMat(ptr noundef %11) #10
  %12 = getelementptr inbounds nuw i8, ptr %0, i64 408
  %13 = load ptr, ptr %12, align 8, !tbaa !20
  tail call void @free(ptr noundef %13) #10
  %14 = getelementptr inbounds nuw i8, ptr %0, i64 424
  %15 = load ptr, ptr %14, align 8, !tbaa !21
  tail call void @free(ptr noundef %15) #10
  %16 = getelementptr inbounds nuw i8, ptr %0, i64 432
  %17 = load ptr, ptr %16, align 8, !tbaa !22
  tail call void @free(ptr noundef %17) #10
  %18 = getelementptr inbounds nuw i8, ptr %0, i64 416
  %19 = load ptr, ptr %18, align 8, !tbaa !37
  tail call void @N_VDestroy(ptr noundef %19) #10
  tail call void @free(ptr noundef nonnull %0) #10
  ret void
}